target datalayout = "e-m:e-p270:32:32-p271:32:32-p272:64:64-i64:64-i128:128-f80:128-n8:16:32:64-S128"
target triple = "x86_64-unknown-linux-gnu"

%struct.btMultibodyLink = type { float, %class.btVector3, i32, %class.btQuaternion, %class.btVector3, %class.btVector3, %struct.btSpatialMotionVector, %struct.btSpatialMotionVector, [6 x %struct.btSpatialMotionVector], i32, i32, %class.btQuaternion, %class.btVector3, %class.btQuaternion, %class.btVector3, %class.btVector3, %class.btVector3, %class.btVector3, %class.btVector3, [7 x float], [7 x float], [6 x float], ptr, i32, i32, i32, i32, ptr, %class.btTransform, ptr, ptr, ptr, float, float, float, float, float, float }
%struct.btSpatialMotionVector = type { %class.btVector3, %class.btVector3 }
%class.btQuaternion = type { %class.btQuadWord }
%class.btQuadWord = type { [4 x float] }
%class.btVector3 = type { [4 x float] }
%class.btTransform = type { %class.btMatrix3x3, %class.btVector3 }
%class.btMatrix3x3 = type { [3 x %class.btVector3] }
%class.btMultiBodyConstraint = type { ptr, ptr, ptr, i32, i32, i32, i32, i32, i32, i32, i8, i32, float, %class.btAlignedObjectArray }
%class.btAlignedObjectArray = type <{ %class.btAlignedAllocator, [3 x i8], i32, i32, [4 x i8], ptr, i8, [7 x i8] }>
%class.btAlignedAllocator = type { i8 }
%class.btMultiBody = type { ptr, ptr, ptr, %class.btVector3, %class.btVector3, %class.btQuaternion, %class.btQuaternion, float, %class.btVector3, %class.btVector3, %class.btVector3, %class.btVector3, %class.btVector3, [4 x i8], %class.btAlignedObjectArray.0, %class.btAlignedObjectArray, %class.btAlignedObjectArray, %class.btAlignedObjectArray, %class.btAlignedObjectArray.4, %class.btAlignedObjectArray.8, %class.btMatrix3x3, %class.btMatrix3x3, %class.btMatrix3x3, %class.btMatrix3x3, i8, i8, i8, i8, i8, float, float, float, ptr, i32, i32, i32, float, float, i8, float, float, i8, i8, i32, i32, i8, i8, i8, i8 }
%class.btAlignedObjectArray.0 = type <{ %class.btAlignedAllocator.1, [3 x i8], i32, i32, [4 x i8], ptr, i8, [7 x i8] }>
%class.btAlignedAllocator.1 = type { i8 }
%class.btAlignedObjectArray.4 = type <{ %class.btAlignedAllocator.5, [3 x i8], i32, i32, [4 x i8], ptr, i8, [7 x i8] }>
%class.btAlignedAllocator.5 = type { i8 }
%class.btAlignedObjectArray.8 = type <{ %class.btAlignedAllocator.9, [3 x i8], i32, i32, [4 x i8], ptr, i8, [7 x i8] }>
%class.btAlignedAllocator.9 = type { i8 }
%class.btCollisionObject = type <{ ptr, %class.btTransform, %class.btTransform, %class.btVector3, %class.btVector3, %class.btVector3, i32, float, ptr, ptr, ptr, ptr, i32, i32, i32, i32, i32, float, float, float, float, float, float, float, i32, [4 x i8], ptr, i32, i32, i32, float, float, float, i32, [4 x i8], %class.btAlignedObjectArray.12, i32, %class.btVector3, [4 x i8] }>
%class.btAlignedObjectArray.12 = type <{ %class.btAlignedAllocator.13, [3 x i8], i32, i32, [4 x i8], ptr, i8, [7 x i8] }>
%class.btAlignedAllocator.13 = type { i8 }

; Function Attrs: mustprogress nounwind uwtable
define linkonce_odr dso_local noundef nonnull align 8 dereferenceable(688) ptr @_ZN20btAlignedObjectArrayI15btMultibodyLinkEixEi(ptr noundef nonnull align 8 dereferenceable(25) %this, i32 noundef %n) #1 comdat align 2 {
entry:
  %this.addr = alloca ptr, align 8
  %n.addr = alloca i32, align 4
  store ptr %this, ptr %this.addr, align 8
  store i32 %n, ptr %n.addr, align 4
  %this1 = load ptr, ptr %this.addr, align 8
  %m_data = getelementptr inbounds %class.btAlignedObjectArray.0, ptr %this1, i32 0, i32 5
  %0 = load ptr, ptr %m_data, align 8
  %1 = load i32, ptr %n.addr, align 4
  %idxprom = sext i32 %1 to i64
  %arrayidx = getelementptr inbounds %struct.btMultibodyLink, ptr %0, i64 %idxprom
  ret ptr %arrayidx
}

; Function Attrs: mustprogress uwtable
define linkonce_odr dso_local noundef nonnull align 8 dereferenceable(688) ptr @_ZN11btMultiBody7getLinkEi(ptr noundef nonnull align 8 dereferenceable(640) %this, i32 noundef %index) #2 comdat align 2 {
entry:
  %this.addr = alloca ptr, align 8
  %index.addr = alloca i32, align 4
  store ptr %this, ptr %this.addr, align 8
  store i32 %index, ptr %index.addr, align 4
  %this1 = load ptr, ptr %this.addr, align 8
  %m_links = getelementptr inbounds %class.btMultiBody, ptr %this1, i32 0, i32 14
  %0 = load i32, ptr %index.addr, align 4
  %call = call noundef nonnull align 8 dereferenceable(688) ptr @_ZN20btAlignedObjectArrayI15btMultibodyLinkEixEi(ptr noundef nonnull align 8 dereferenceable(25) %m_links, i32 noundef %0)
  ret ptr %call
}

; Function Attrs: mustprogress nounwind uwtable
define linkonce_odr dso_local noundef i32 @_ZNK17btCollisionObject12getIslandTagEv(ptr noundef nonnull align 8 dereferenceable(372) %this) #1 comdat align 2 {
entry:
  %this.addr = alloca ptr, align 8
  store ptr %this, ptr %this.addr, align 8
  %this1 = load ptr, ptr %this.addr, align 8
  %m_islandTag1 = getelementptr inbounds %class.btCollisionObject, ptr %this1, i32 0, i32 13
  %0 = load i32, ptr %m_islandTag1, align 4
  ret i32 %0
}

; Function Attrs: mustprogress nounwind uwtable
define linkonce_odr dso_local noundef ptr @_ZN11btMultiBody15getBaseColliderEv(ptr noundef nonnull align 8 dereferenceable(640) %this) #1 comdat align 2 {
entry:
  %this.addr = alloca ptr, align 8
  store ptr %this, ptr %this.addr, align 8
  %this1 = load ptr, ptr %this.addr, align 8
  %m_baseCollider = getelementptr inbounds %class.btMultiBody, ptr %this1, i32 0, i32 1
  %0 = load ptr, ptr %m_baseCollider, align 8
  ret ptr %0
}

; Function Attrs: mustprogress uwtable
define dso_local noundef i32 @_ZNK30btMultiBodySphericalJointMotor12getIslandIdBEv(ptr noundef nonnull align 8 dereferenceable(204) %this) unnamed_addr #2 align 2 {
entry:
  %retval = alloca i32, align 4
  %this.addr = alloca ptr, align 8
  %col = alloca ptr, align 8
  store ptr %this, ptr %this.addr, align 8
  %this1 = load ptr, ptr %this.addr, align 8
  %m_linkB = getelementptr inbounds %class.btMultiBodyConstraint, ptr %this1, i32 0, i32 4
  %0 = load i32, ptr %m_linkB, align 4
  %cmp = icmp slt i32 %0, 0
  br i1 %cmp, label %if.then, label %if.else

if.then:                                          ; preds = %entry
  %m_bodyB = getelementptr inbounds %class.btMultiBodyConstraint, ptr %this1, i32 0, i32 2
  %1 = load ptr, ptr %m_bodyB, align 8
  %call = call noundef ptr @_ZN11btMultiBody15getBaseColliderEv(ptr noundef nonnull align 8 dereferenceable(640) %1)
  store ptr %call, ptr %col, align 8
  %2 = load ptr, ptr %col, align 8
  %tobool = icmp ne ptr %2, null
  br i1 %tobool, label %if.then2, label %if.end

if.then2:                                         ; preds = %if.then
  %3 = load ptr, ptr %col, align 8
  %call3 = call noundef i32 @_ZNK17btCollisionObject12getIslandTagEv(ptr noundef nonnull align 8 dereferenceable(372) %3)
  store i32 %call3, ptr %retval, align 4
  br label %return

if.end:                                           ; preds = %if.then
  br label %if.end15

if.else:                                          ; preds = %entry
  %m_bodyB4 = getelementptr inbounds %class.btMultiBodyConstraint, ptr %this1, i32 0, i32 2
  %4 = load ptr, ptr %m_bodyB4, align 8
  %m_linkB5 = getelementptr inbounds %class.btMultiBodyConstraint, ptr %this1, i32 0, i32 4
  %5 = load i32, ptr %m_linkB5, align 4
  %call6 = call noundef nonnull align 8 dereferenceable(688) ptr @_ZN11btMultiBody7getLinkEi(ptr noundef nonnull align 8 dereferenceable(640) %4, i32 noundef %5)
  %m_collider = getelementptr inbounds %struct.btMultibodyLink, ptr %call6, i32 0, i32 22
  %6 = load ptr, ptr %m_collider, align 8
  %tobool7 = icmp ne ptr %6, null
  br i1 %tobool7, label %if.then8, label %if.end14

if.then8:                                         ; preds = %if.else
  %m_bodyB9 = getelementptr inbounds %class.btMultiBodyConstraint, ptr %this1, i32 0, i32 2
  %7 = load ptr, ptr %m_bodyB9, align 8
  %m_linkB10 = getelementptr inbounds %class.btMultiBodyConstraint, ptr %this1, i32 0, i32 4
  %8 = load i32, ptr %m_linkB10, align 4
  %call11 = call noundef nonnull align 8 dereferenceable(688) ptr @_ZN11btMultiBody7getLinkEi(ptr noundef nonnull align 8 dereferenceable(640) %7, i32 noundef %8)
  %m_collider12 = getelementptr inbounds %struct.btMultibodyLink, ptr %call11, i32 0, i32 22
  %9 = load ptr, ptr %m_collider12, align 8
  %call13 = call noundef i32 @_ZNK17btCollisionObject12getIslandTagEv(ptr noundef nonnull align 8 dereferenceable(372) %9)
  store i32 %call13, ptr %retval, align 4
  br label %return

if.end14:                                         ; preds = %if.else
  br label %if.end15

if.end15:                                         ; preds = %if.end14, %if.end
  store i32 -1, ptr %retval, align 4
  br label %return

return:                                           ; preds = %if.end15, %if.then8, %if.then2
  %10 = load i32, ptr %retval, align 4
  ret i32 %10
}